ccopy_reg
_reconstructor
p0
(c__main__
Node
p1
c__builtin__
object
p2
Ntp3
Rp4
(dp5
S'right'
p6
g0
(g1
g2
Ntp7
Rp8
(dp9
g6
g0
(g1
g2
Ntp10
Rp11
(dp12
g6
NsS'data'
p13
I15
sS'left'
p14
Nsbsg13
I12
sg14
g0
(g1
g2
Ntp15
Rp16
(dp17
g6
Nsg13
I11
sg14
Nsbsbsg13
I10
sg14
g0
(g1
g2
Ntp18
Rp19
(dp20
g6
g0
(g1
g2
Ntp21
Rp22
(dp23
g6
Nsg13
I9
sg14
Nsbsg13
I7
sg14
Nsbsb.